; Function Attrs: nounwind uwtable
define ptr @l_Lean_Elab_Term_CollectPatternVars_collect___lambda__2___boxed(ptr noundef readonly captures(none) %0) local_unnamed_addr #0 {
  %2 = load ptr, ptr %0, align 8, !tbaa !11
  %3 = getelementptr inbounds nuw i8, ptr %0, i64 8
  %4 = load ptr, ptr %3, align 8, !tbaa !11
  %5 = getelementptr inbounds nuw i8, ptr %0, i64 16
  %6 = load ptr, ptr %5, align 8, !tbaa !11
  %7 = getelementptr inbounds nuw i8, ptr %0, i64 24
  %8 = load ptr, ptr %7, align 8, !tbaa !11
  %9 = getelementptr inbounds nuw i8, ptr %0, i64 32
  %10 = load ptr, ptr %9, align 8, !tbaa !11
  %11 = getelementptr inbounds nuw i8, ptr %0, i64 40
  %12 = load ptr, ptr %11, align 8, !tbaa !11
  %13 = getelementptr inbounds nuw i8, ptr %0, i64 48
  %14 = load ptr, ptr %13, align 8, !tbaa !11
  %15 = getelementptr inbounds nuw i8, ptr %0, i64 56
  %16 = load ptr, ptr %15, align 8, !tbaa !11
  %17 = getelementptr inbounds nuw i8, ptr %0, i64 64
  %18 = load ptr, ptr %17, align 8, !tbaa !11
  %19 = getelementptr inbounds nuw i8, ptr %0, i64 72
  %20 = load ptr, ptr %19, align 8, !tbaa !11
  %21 = getelementptr inbounds nuw i8, ptr %0, i64 80
  %22 = load ptr, ptr %21, align 8, !tbaa !11
  %23 = getelementptr inbounds nuw i8, ptr %0, i64 88
  %24 = load ptr, ptr %23, align 8, !tbaa !11
  %25 = getelementptr inbounds nuw i8, ptr %0, i64 96
  %26 = load ptr, ptr %25, align 8, !tbaa !11
  %27 = getelementptr inbounds nuw i8, ptr %0, i64 104
  %28 = load ptr, ptr %27, align 8, !tbaa !11
  %29 = getelementptr inbounds nuw i8, ptr %0, i64 112
  %30 = load ptr, ptr %29, align 8, !tbaa !11
  %31 = getelementptr inbounds nuw i8, ptr %0, i64 120
  %32 = load ptr, ptr %31, align 8, !tbaa !11
  %33 = getelementptr inbounds nuw i8, ptr %0, i64 128
  %34 = load ptr, ptr %33, align 8, !tbaa !11
  %35 = getelementptr inbounds nuw i8, ptr %0, i64 136
  %36 = load ptr, ptr %35, align 8, !tbaa !11
  %37 = tail call ptr @l_Lean_Elab_Term_CollectPatternVars_collect___lambda__2(ptr noundef %2, ptr noundef %4, ptr poison, ptr noundef %8, ptr noundef %10, ptr noundef %12, ptr noundef %14, ptr noundef %16, ptr noundef %18, ptr poison, ptr noundef %22, ptr noundef %24, ptr noundef %26, ptr noundef %28, ptr noundef %30, ptr noundef %32, ptr noundef %34, ptr noundef %36)
  %38 = ptrtoint ptr %20 to i64
  %39 = and i64 %38, 1
  %.not = icmp eq i64 %39, 0
  br i1 %.not, label %40, label %lean_dec.exit45

40:                                               ; preds = %1
  %41 = load i32, ptr %20, align 4, !tbaa !8
  %42 = icmp sgt i32 %41, 1
  br i1 %42, label %43, label %45, !prof !15

43:                                               ; preds = %40
  %44 = add nsw i32 %41, -1
  store i32 %44, ptr %20, align 4, !tbaa !8
  br label %lean_dec.exit45

45:                                               ; preds = %40
  %.not.i = icmp eq i32 %41, 0
  br i1 %.not.i, label %lean_dec.exit45, label %46

46:                                               ; preds = %45
  tail call void @lean_dec_ref_cold(ptr noundef nonnull %20) #6
  br label %lean_dec.exit45

lean_dec.exit45:                                  ; preds = %46, %45, %43, %1
  %47 = ptrtoint ptr %18 to i64
  %48 = and i64 %47, 1
  %.not54 = icmp eq i64 %48, 0
  br i1 %.not54, label %49, label %lean_dec.exit44

49:                                               ; preds = %lean_dec.exit45
  %50 = load i32, ptr %18, align 4, !tbaa !8
  %51 = icmp sgt i32 %50, 1
  br i1 %51, label %52, label %54, !prof !15

52:                                               ; preds = %49
  %53 = add nsw i32 %50, -1
  store i32 %53, ptr %18, align 4, !tbaa !8
  br label %lean_dec.exit44

54:                                               ; preds = %49
  %.not.i46 = icmp eq i32 %50, 0
  br i1 %.not.i46, label %lean_dec.exit44, label %55

55:                                               ; preds = %54
  tail call void @lean_dec_ref_cold(ptr noundef nonnull %18) #6
  br label %lean_dec.exit44

lean_dec.exit44:                                  ; preds = %55, %54, %52, %lean_dec.exit45
  %56 = ptrtoint ptr %10 to i64
  %57 = and i64 %56, 1
  %.not55 = icmp eq i64 %57, 0
  br i1 %.not55, label %58, label %lean_dec.exit43

58:                                               ; preds = %lean_dec.exit44
  %59 = load i32, ptr %10, align 4, !tbaa !8
  %60 = icmp sgt i32 %59, 1
  br i1 %60, label %61, label %63, !prof !15

61:                                               ; preds = %58
  %62 = add nsw i32 %59, -1
  store i32 %62, ptr %10, align 4, !tbaa !8
  br label %lean_dec.exit43

63:                                               ; preds = %58
  %.not.i48 = icmp eq i32 %59, 0
  br i1 %.not.i48, label %lean_dec.exit43, label %64

64:                                               ; preds = %63
  tail call void @lean_dec_ref_cold(ptr noundef nonnull %10) #6
  br label %lean_dec.exit43

lean_dec.exit43:                                  ; preds = %64, %63, %61, %lean_dec.exit44
  %65 = ptrtoint ptr %6 to i64
  %66 = and i64 %65, 1
  %.not56 = icmp eq i64 %66, 0
  br i1 %.not56, label %67, label %lean_dec.exit42

67:                                               ; preds = %lean_dec.exit43
  %68 = load i32, ptr %6, align 4, !tbaa !8
  %69 = icmp sgt i32 %68, 1
  br i1 %69, label %70, label %72, !prof !15

70:                                               ; preds = %67
  %71 = add nsw i32 %68, -1
  store i32 %71, ptr %6, align 4, !tbaa !8
  br label %lean_dec.exit42

72:                                               ; preds = %67
  %.not.i50 = icmp eq i32 %68, 0
  br i1 %.not.i50, label %lean_dec.exit42, label %73

73:                                               ; preds = %72
  tail call void @lean_dec_ref_cold(ptr noundef nonnull %6) #6
  br label %lean_dec.exit42

lean_dec.exit42:                                  ; preds = %73, %72, %70, %lean_dec.exit43
  %74 = ptrtoint ptr %2 to i64
  %75 = and i64 %74, 1
  %.not57 = icmp eq i64 %75, 0
  br i1 %.not57, label %76, label %lean_dec.exit

76:                                               ; preds = %lean_dec.exit42
  %77 = load i32, ptr %2, align 4, !tbaa !8
  %78 = icmp sgt i32 %77, 1
  br i1 %78, label %79, label %81, !prof !15

79:                                               ; preds = %76
  %80 = add nsw i32 %77, -1
  store i32 %80, ptr %2, align 4, !tbaa !8
  br label %lean_dec.exit

81:                                               ; preds = %76
  %.not.i52 = icmp eq i32 %77, 0
  br i1 %.not.i52, label %lean_dec.exit, label %82

82:                                               ; preds = %81
  tail call void @lean_dec_ref_cold(ptr noundef nonnull %2) #6
  br label %lean_dec.exit

lean_dec.exit:                                    ; preds = %82, %81, %79, %lean_dec.exit42
  ret ptr %37
}